target datalayout = "e-m:e-p270:32:32-p271:32:32-p272:64:64-i64:64-i128:128-f80:128-n8:16:32:64-S128"
target triple = "x86_64-pc-linux-gnu"

%struct.RBasic = type { i64, i64 }
%struct.RRational = type { %struct.RBasic, i64, i64 }

; Function Attrs: inlinehint nounwind sspstrong willreturn memory(read) uwtable
define internal i64 @RB_FL_TEST_RAW(i64 noundef %0, i64 noundef %1) #5 {
  %3 = alloca i64, align 8
  %4 = alloca i64, align 8
  store i64 %0, ptr %3, align 8, !tbaa !7
  store i64 %1, ptr %4, align 8, !tbaa !7
  %5 = load i64, ptr %3, align 8, !tbaa !7
  %6 = inttoptr i64 %5 to ptr
  %7 = getelementptr inbounds nuw %struct.RBasic, ptr %6, i32 0, i32 0
  %8 = load i64, ptr %7, align 8, !tbaa !12
  %9 = load i64, ptr %4, align 8, !tbaa !7
  %10 = and i64 %8, %9
  ret i64 %10
}

; Function Attrs: inlinehint nounwind sspstrong uwtable
define internal zeroext i1 @BIGNUM_SIGN(i64 noundef %0) #3 {
  %2 = alloca i64, align 8
  store i64 %0, ptr %2, align 8, !tbaa !7
  %3 = load i64, ptr %2, align 8, !tbaa !7
  %4 = call i64 @RB_FL_TEST_RAW(i64 noundef %3, i64 noundef 8192) #22
  %5 = icmp ne i64 %4, 0
  ret i1 %5
}

; Function Attrs: inlinehint nounwind sspstrong uwtable
define internal zeroext i1 @BIGNUM_POSITIVE_P(i64 noundef %0) #3 {
  %2 = alloca i64, align 8
  store i64 %0, ptr %2, align 8, !tbaa !7
  %3 = load i64, ptr %2, align 8, !tbaa !7
  %4 = call zeroext i1 @BIGNUM_SIGN(i64 noundef %3)
  ret i1 %4
}

; Function Attrs: inlinehint nounwind sspstrong uwtable
define internal zeroext i1 @BIGNUM_NEGATIVE_P(i64 noundef %0) #3 {
  %2 = alloca i64, align 8
  store i64 %0, ptr %2, align 8, !tbaa !7
  %3 = load i64, ptr %2, align 8, !tbaa !7
  %4 = call zeroext i1 @BIGNUM_POSITIVE_P(i64 noundef %3)
  %5 = xor i1 %4, true
  ret i1 %5
}

; Function Attrs: inlinehint nounwind sspstrong uwtable
define internal zeroext i1 @FIXNUM_NEGATIVE_P(i64 noundef %0) #3 {
  %2 = alloca i64, align 8
  store i64 %0, ptr %2, align 8, !tbaa !7
  %3 = load i64, ptr %2, align 8, !tbaa !7
  %4 = icmp slt i64 %3, 0
  ret i1 %4
}

; Function Attrs: inlinehint nounwind sspstrong willreturn memory(none) uwtable
define internal zeroext i1 @RB_FIXNUM_P(i64 noundef %0) #8 {
  %2 = alloca i64, align 8
  store i64 %0, ptr %2, align 8, !tbaa !7
  %3 = load i64, ptr %2, align 8, !tbaa !7
  %4 = and i64 %3, 1
  %5 = icmp ne i64 %4, 0
  ret i1 %5
}

; Function Attrs: inlinehint nounwind sspstrong uwtable
define internal zeroext i1 @INT_NEGATIVE_P(i64 noundef %0) #3 {
  %2 = alloca i1, align 1
  %3 = alloca i64, align 8
  store i64 %0, ptr %3, align 8, !tbaa !7
  %4 = load i64, ptr %3, align 8, !tbaa !7
  %5 = call zeroext i1 @RB_FIXNUM_P(i64 noundef %4) #23
  br i1 %5, label %6, label %9

6:                                                ; preds = %1
  %7 = load i64, ptr %3, align 8, !tbaa !7
  %8 = call zeroext i1 @FIXNUM_NEGATIVE_P(i64 noundef %7)
  store i1 %8, ptr %2, align 1
  br label %12

9:                                                ; preds = %1
  %10 = load i64, ptr %3, align 8, !tbaa !7
  %11 = call zeroext i1 @BIGNUM_NEGATIVE_P(i64 noundef %10)
  store i1 %11, ptr %2, align 1
  br label %12

12:                                               ; preds = %9, %6
  %13 = load i1, ptr %2, align 1
  ret i1 %13
}

; Function Attrs: nounwind sspstrong uwtable
define internal i64 @nurat_round_half_up(i64 noundef %0) #0 {
  %2 = alloca i64, align 8
  %3 = alloca i64, align 8
  %4 = alloca i64, align 8
  %5 = alloca i64, align 8
  %6 = alloca ptr, align 8
  store i64 %0, ptr %2, align 8, !tbaa !7
  call void @llvm.lifetime.start.p0(i64 8, ptr %3) #21
  call void @llvm.lifetime.start.p0(i64 8, ptr %4) #21
  call void @llvm.lifetime.start.p0(i64 8, ptr %5) #21
  call void @llvm.lifetime.start.p0(i64 8, ptr %6) #21
  %7 = load i64, ptr %2, align 8, !tbaa !7
  %8 = inttoptr i64 %7 to ptr
  store ptr %8, ptr %6, align 8, !tbaa !16
  %9 = load ptr, ptr %6, align 8, !tbaa !16
  %10 = getelementptr inbounds nuw %struct.RRational, ptr %9, i32 0, i32 1
  %11 = load i64, ptr %10, align 8, !tbaa !19
  store i64 %11, ptr %3, align 8, !tbaa !7
  %12 = load ptr, ptr %6, align 8, !tbaa !16
  %13 = getelementptr inbounds nuw %struct.RRational, ptr %12, i32 0, i32 2
  %14 = load i64, ptr %13, align 8, !tbaa !21
  store i64 %14, ptr %4, align 8, !tbaa !7
  %15 = load i64, ptr %3, align 8, !tbaa !7
  %16 = call zeroext i1 @INT_NEGATIVE_P(i64 noundef %15)
  %17 = zext i1 %16 to i64
  store i64 %17, ptr %5, align 8, !tbaa !7
  %18 = load i64, ptr %5, align 8, !tbaa !7
  %19 = icmp ne i64 %18, 0
  br i1 %19, label %20, label %23

20:                                               ; preds = %1
  %21 = load i64, ptr %3, align 8, !tbaa !7
  %22 = call i64 @rb_int_uminus(i64 noundef %21)
  store i64 %22, ptr %3, align 8, !tbaa !7
  br label %23

23:                                               ; preds = %20, %1
  %24 = load i64, ptr %3, align 8, !tbaa !7
  %25 = call i64 @rb_int_mul(i64 noundef %24, i64 noundef 5)
  %26 = load i64, ptr %4, align 8, !tbaa !7
  %27 = call i64 @rb_int_plus(i64 noundef %25, i64 noundef %26)
  store i64 %27, ptr %3, align 8, !tbaa !7
  %28 = load i64, ptr %4, align 8, !tbaa !7
  %29 = call i64 @rb_int_mul(i64 noundef %28, i64 noundef 5)
  store i64 %29, ptr %4, align 8, !tbaa !7
  %30 = load i64, ptr %3, align 8, !tbaa !7
  %31 = load i64, ptr %4, align 8, !tbaa !7
  %32 = call i64 @rb_int_idiv(i64 noundef %30, i64 noundef %31)
  store i64 %32, ptr %3, align 8, !tbaa !7
  %33 = load i64, ptr %5, align 8, !tbaa !7
  %34 = icmp ne i64 %33, 0
  br i1 %34, label %35, label %38

35:                                               ; preds = %23
  %36 = load i64, ptr %3, align 8, !tbaa !7
  %37 = call i64 @rb_int_uminus(i64 noundef %36)
  store i64 %37, ptr %3, align 8, !tbaa !7
  br label %38

38:                                               ; preds = %35, %23
  %39 = load i64, ptr %3, align 8, !tbaa !7
  call void @llvm.lifetime.end.p0(i64 8, ptr %6) #21
  call void @llvm.lifetime.end.p0(i64 8, ptr %5) #21
  call void @llvm.lifetime.end.p0(i64 8, ptr %4) #21
  call void @llvm.lifetime.end.p0(i64 8, ptr %3) #21
  ret i64 %39
}