; Function Attrs: nounwind sspstrong uwtable
define internal i64 @nurat_round_half_up(i64 noundef %0) #0 {
  %2 = inttoptr i64 %0 to ptr
  %3 = getelementptr inbounds nuw i8, ptr %2, i64 16
  %4 = load i64, ptr %3, align 8, !tbaa !19
  %5 = getelementptr inbounds nuw i8, ptr %2, i64 24
  %6 = load i64, ptr %5, align 8, !tbaa !21
  %7 = and i64 %4, 1
  %.not.i = icmp eq i64 %7, 0
  br i1 %.not.i, label %INT_NEGATIVE_P.exit, label %8

8:                                                ; preds = %1
  %9 = icmp slt i64 %4, 0
  br i1 %9, label %13, label %15

INT_NEGATIVE_P.exit:                              ; preds = %1
  %10 = inttoptr i64 %4 to ptr
  %11 = load i64, ptr %10, align 8, !tbaa !7
  %12 = and i64 %11, 8192
  %.not.i.i = icmp eq i64 %12, 0
  br i1 %.not.i.i, label %13, label %15

13:                                               ; preds = %8, %INT_NEGATIVE_P.exit
  %14 = tail call i64 @rb_int_uminus(i64 noundef %4) #17
  br label %15

15:                                               ; preds = %8, %13, %INT_NEGATIVE_P.exit
  %.0.i13 = phi i1 [ true, %13 ], [ false, %INT_NEGATIVE_P.exit ], [ false, %8 ]
  %.0 = phi i64 [ %14, %13 ], [ %4, %INT_NEGATIVE_P.exit ], [ %4, %8 ]
  %16 = tail call i64 @rb_int_mul(i64 noundef %.0, i64 noundef 5) #17
  %17 = tail call i64 @rb_int_plus(i64 noundef %16, i64 noundef %6) #17
  %18 = tail call i64 @rb_int_mul(i64 noundef %6, i64 noundef 5) #17
  %19 = tail call i64 @rb_int_idiv(i64 noundef %17, i64 noundef %18) #17
  br i1 %.0.i13, label %20, label %22

20:                                               ; preds = %15
  %21 = tail call i64 @rb_int_uminus(i64 noundef %19) #17
  br label %22

22:                                               ; preds = %20, %15
  %.1 = phi i64 [ %21, %20 ], [ %19, %15 ]
  ret i64 %.1
}